; Function Attrs: nounwind uwtable
define ptr @l_Lean_Server_RequestM_findCmdParsedSnaps_go___lambda__3(ptr noundef %0, ptr noundef %1, ptr noundef %2, ptr noundef %3, ptr noundef readnone captures(none) %4) local_unnamed_addr #1 {
  %6 = tail call zeroext i8 @l_Lean_Server_RequestM_findCmdParsedSnaps_overlapsRequestedRange(ptr noundef %1, ptr noundef %2, ptr noundef %0)
  %7 = icmp eq i8 %6, 0
  br i1 %7, label %18, label %8

8:                                                ; preds = %5
  %9 = ptrtoint ptr %0 to i64
  %10 = and i64 %9, 1
  %.not = icmp eq i64 %10, 0
  br i1 %.not, label %11, label %lean_inc.exit

11:                                               ; preds = %8
  %.val.i = load i32, ptr %0, align 4, !tbaa !4
  %12 = icmp sgt i32 %.val.i, 0
  br i1 %12, label %13, label %15, !prof !11

13:                                               ; preds = %11
  %14 = add nuw i32 %.val.i, 1
  store i32 %14, ptr %0, align 4, !tbaa !4
  br label %lean_inc.exit

15:                                               ; preds = %11
  %.not.i = icmp eq i32 %.val.i, 0
  br i1 %.not.i, label %lean_inc.exit, label %16

16:                                               ; preds = %15
  tail call void @lean_inc_ref_cold(ptr noundef nonnull %0) #6
  br label %lean_inc.exit

lean_inc.exit:                                    ; preds = %16, %15, %13, %8
  %17 = tail call ptr @lean_array_push(ptr noundef %3, ptr noundef %0) #6
  br label %18

18:                                               ; preds = %5, %lean_inc.exit
  %.sink = phi ptr [ %17, %lean_inc.exit ], [ %3, %5 ]
  %19 = tail call ptr @l_Lean_Server_RequestM_findCmdParsedSnaps_go___lambda__2(ptr noundef %0, ptr noundef %1, ptr noundef %2, ptr noundef %.sink, ptr nonnull poison)
  ret ptr %19
}